target datalayout = "e-m:e-p270:32:32-p271:32:32-p272:64:64-i64:64-i128:128-f80:128-n8:16:32:64-S128"
target triple = "x86_64-pc-linux-gnu"

%struct.PgStat_KindInfo = type { i8, i32, i32, i32, i32, i32, i32, ptr, ptr, ptr, ptr, ptr, ptr, ptr, ptr, ptr, ptr, ptr, ptr }

; Function Attrs: nounwind uwtable
define internal i64 @pgstat_dsa_init_size() #0 {
  %1 = alloca i64, align 8
  call void @llvm.lifetime.start.p0(i64 8, ptr %1) #10
  store i64 262144, ptr %1, align 8
  %2 = load i64, ptr %1, align 8
  %3 = add i64 %2, 7
  %4 = and i64 %3, -8
  call void @llvm.lifetime.end.p0(i64 8, ptr %1) #10
  ret i64 %4
}

; Function Attrs: nounwind uwtable
define dso_local i64 @StatsShmemSize() #0 {
  %1 = alloca i64, align 8
  %2 = alloca i32, align 4
  %3 = alloca i32, align 4
  %4 = alloca ptr, align 8
  call void @llvm.lifetime.start.p0(i64 8, ptr %1) #10
  store i64 51504, ptr %1, align 8
  %5 = load i64, ptr %1, align 8
  %6 = call i64 @pgstat_dsa_init_size()
  %7 = call i64 @add_size(i64 noundef %5, i64 noundef %6)
  store i64 %7, ptr %1, align 8
  call void @llvm.lifetime.start.p0(i64 4, ptr %2) #10
  store i32 128, ptr %2, align 4
  br label %8

8:                                                ; preds = %36, %0
  %9 = load i32, ptr %2, align 4
  %10 = icmp ule i32 %9, 256
  br i1 %10, label %12, label %11

11:                                               ; preds = %8
  store i32 2, ptr %3, align 4
  call void @llvm.lifetime.end.p0(i64 4, ptr %2) #10
  br label %39

12:                                               ; preds = %8
  call void @llvm.lifetime.start.p0(i64 8, ptr %4) #10
  %13 = load i32, ptr %2, align 4
  %14 = call ptr @pgstat_get_kind_info(i32 noundef %13)
  store ptr %14, ptr %4, align 8
  %15 = load ptr, ptr %4, align 8
  %16 = icmp ne ptr %15, null
  br i1 %16, label %18, label %17

17:                                               ; preds = %12
  store i32 4, ptr %3, align 4
  br label %33

18:                                               ; preds = %12
  %19 = load ptr, ptr %4, align 8
  %20 = load i8, ptr %19, align 8
  %21 = and i8 %20, 1
  %22 = trunc i8 %21 to i1
  br i1 %22, label %24, label %23

23:                                               ; preds = %18
  store i32 4, ptr %3, align 4
  br label %33

24:                                               ; preds = %18
  %25 = load ptr, ptr %4, align 8
  %26 = getelementptr inbounds nuw %struct.PgStat_KindInfo, ptr %25, i32 0, i32 1
  %27 = load i32, ptr %26, align 4
  %28 = zext i32 %27 to i64
  %29 = add i64 %28, 7
  %30 = and i64 %29, -8
  %31 = load i64, ptr %1, align 8
  %32 = add i64 %31, %30
  store i64 %32, ptr %1, align 8
  store i32 0, ptr %3, align 4
  br label %33

33:                                               ; preds = %24, %23, %17
  call void @llvm.lifetime.end.p0(i64 8, ptr %4) #10
  %34 = load i32, ptr %3, align 4
  switch i32 %34, label %41 [
    i32 0, label %35
    i32 4, label %36
  ]

35:                                               ; preds = %33
  br label %36

36:                                               ; preds = %35, %33
  %37 = load i32, ptr %2, align 4
  %38 = add i32 %37, 1
  store i32 %38, ptr %2, align 4
  br label %8, !llvm.loop !4

39:                                               ; preds = %11
  %40 = load i64, ptr %1, align 8
  store i32 1, ptr %3, align 4
  call void @llvm.lifetime.end.p0(i64 8, ptr %1) #10
  ret i64 %40

41:                                               ; preds = %33
  unreachable
}