; Function Attrs: nounwind uwtable
define dso_local i64 @StatsShmemSize() local_unnamed_addr #0 {
  %1 = tail call i64 @add_size(i64 noundef 51504, i64 noundef 262144) #15
  br label %3

2:                                                ; preds = %15
  ret i64 %.1

3:                                                ; preds = %0, %15
  %.011 = phi i64 [ %1, %0 ], [ %.1, %15 ]
  %.0810 = phi i32 [ 128, %0 ], [ %16, %15 ]
  %4 = tail call ptr @pgstat_get_kind_info(i32 noundef %.0810) #15
  %.not = icmp eq ptr %4, null
  br i1 %.not, label %15, label %5

5:                                                ; preds = %3
  %6 = load i8, ptr %4, align 8
  %7 = trunc i8 %6 to i1
  br i1 %7, label %8, label %15

8:                                                ; preds = %5
  %9 = getelementptr inbounds nuw i8, ptr %4, i64 4
  %10 = load i32, ptr %9, align 4
  %11 = zext i32 %10 to i64
  %12 = add nuw nsw i64 %11, 7
  %13 = and i64 %12, 8589934584
  %14 = add i64 %13, %.011
  br label %15

15:                                               ; preds = %5, %3, %8
  %.1 = phi i64 [ %14, %8 ], [ %.011, %3 ], [ %.011, %5 ]
  %16 = add nuw nsw i32 %.0810, 1
  %exitcond.not = icmp eq i32 %16, 257
  br i1 %exitcond.not, label %2, label %3, !llvm.loop !4
}